; Function Attrs: nounwind uwtable
define hidden ptr @zend_shared_memdup_free(ptr noundef %0, i64 noundef %1) local_unnamed_addr #0 {
  %3 = load ptr, ptr getelementptr inbounds (%struct._zend_accel_globals, ptr @accel_globals, i64 0, i32 19), align 8
  %4 = add i64 %1, 7
  %5 = and i64 %4, -8
  %6 = getelementptr inbounds i8, ptr %3, i64 %5
  store ptr %6, ptr getelementptr inbounds (%struct._zend_accel_globals, ptr @accel_globals, i64 0, i32 19), align 8
  tail call void @llvm.memcpy.p0.p0.i64(ptr align 1 %3, ptr align 1 %0, i64 %1, i1 false)
  tail call void @_efree(ptr noundef %0) #20
  ret ptr %3
}